; Function Attrs: mustprogress nofree norecurse nosync nounwind willreturn memory(argmem: readwrite) uwtable
define void @_ZN14duckdb_parquet11AesGcmCtrV1C1Ev(ptr noundef nonnull align 8 dereferenceable(74) initializes((0, 8)) %0) unnamed_addr #10 align 2 personality ptr @__gxx_personality_v0 {
  store ptr getelementptr inbounds nuw inrange(-48, 40) (i8, ptr @_ZTVN14duckdb_parquet11AesGcmCtrV1E, i64 48), ptr %0, align 8, !tbaa !22
  %2 = getelementptr inbounds nuw i8, ptr %0, i64 8
  %3 = getelementptr inbounds nuw i8, ptr %0, i64 24
  store ptr %3, ptr %2, align 8, !tbaa !33
  %4 = getelementptr inbounds nuw i8, ptr %0, i64 16
  store i64 0, ptr %4, align 8, !tbaa !39
  store i8 0, ptr %3, align 8, !tbaa !38
  %5 = getelementptr inbounds nuw i8, ptr %0, i64 40
  %6 = getelementptr inbounds nuw i8, ptr %0, i64 56
  store ptr %6, ptr %5, align 8, !tbaa !33
  %7 = getelementptr inbounds nuw i8, ptr %0, i64 48
  store i64 0, ptr %7, align 8, !tbaa !39
  store i8 0, ptr %6, align 8, !tbaa !38
  %8 = getelementptr inbounds nuw i8, ptr %0, i64 72
  store i8 0, ptr %8, align 8, !tbaa !766
  %9 = getelementptr inbounds nuw i8, ptr %0, i64 73
  %10 = load i8, ptr %9, align 1
  %11 = and i8 %10, -8
  store i8 %11, ptr %9, align 1
  ret void
}